Certificate:
    Data:
        Version: 3 (0x2)
        Serial Number: 1 (0x1)
        Signature Algorithm: sha1WithRSAEncryption
        Issuer: O=SSLDemo, OU=my root ca
        Validity
            Not Before: Oct 28 02:42:26 2011 GMT
            Not After : Oct 27 02:42:26 2012 GMT
        Subject: O=My Web, OU=My Web, CN=mail.baofeng.com
        Subject Public Key Info:
            Public Key Algorithm: rsaEncryption
            RSA Public Key: (1024 bit)
                Modulus (1024 bit):
                    00:bd:74:84:84:cd:4e:1e:bb:63:72:f6:c8:a2:f3:
                    a7:69:1c:27:81:db:f5:52:ad:8a:c9:ae:fc:54:cd:
                    a3:d1:df:8e:82:aa:f1:e1:e0:77:85:c8:f7:ae:4e:
                    06:c9:0f:fe:6b:64:68:70:76:21:11:28:92:9e:bf:
                    25:86:79:b8:d3:1a:4f:95:33:8b:21:dd:b4:22:44:
                    34:f0:0e:dd:00:37:62:a0:f4:c1:96:47:60:08:b1:
                    ca:f0:c7:c3:d7:d4:b9:60:7e:59:8a:0a:bc:10:37:
                    a9:be:d6:e2:dd:49:79:63:b9:37:32:25:e2:fe:d6:
                    c6:bd:7e:f4:0d:a2:31:ef:13
                Exponent: 65537 (0x10001)
        X509v3 extensions:
            X509v3 Basic Constraints: 
                CA:FALSE
            Netscape Cert Type: 
                SSL Server
            X509v3 Key Usage: 
                Digital Signature, Key Encipherment
            X509v3 Extended Key Usage: 
                TLS Web Server Authentication, Netscape Server Gated Crypto, Microsoft Server Gated Crypto
            Netscape Comment: 
                OpenSSL Certificate for SSL Web Server
    Signature Algorithm: sha1WithRSAEncryption
        1f:48:fe:e6:2b:39:3b:f0:f9:d7:48:4e:33:d8:8d:89:03:eb:
        14:51:91:04:a1:d7:02:13:9c:28:e3:5e:36:e7:d5:e5:51:da:
        24:e6:63:eb:c2:5d:bf:62:28:79:3d:59:e3:ee:d4:f4:e7:00:
        58:bb:14:59:53:bd:f8:ac:48:2b:04:15:45:37:8f:d8:b8:24:
        2c:25:e0:2a:56:05:d1:b4:42:e7:3d:f1:83:35:31:7c:2f:67:
        eb:0d:d2:f4:9b:93:65:69:f7:f8:59:19:53:4c:77:c8:1a:32:
        3a:17:ea:41:b6:06:0a:1e:b1:fc:80:d3:17:fe:1c:64:14:c9:
        dc:da
-----BEGIN CERTIFICATE-----
MIICbDCCAdWgAwIBAgIBATANBgkqhkiG9w0BAQUFADAnMRAwDgYDVQQKEwdTU0xE
ZW1vMRMwEQYDVQQLEwpteSByb290IGNhMB4XDTExMTAyODAyNDIyNloXDTEyMTAy
NzAyNDIyNlowPTEPMA0GA1UEChMGTXkgV2ViMQ8wDQYDVQQLEwZNeSBXZWIxGTAX
BgNVBAMTEG1haWwuYmFvZmVuZy5jb20wgZ8wDQYJKoZIhvcNAQEBBQADgY0AMIGJ
AoGBAL10hITNTh67Y3L2yKLzp2kcJ4Hb9VKtismu/FTNo9HfjoKq8eHgd4XI965O
BskP/mtkaHB2IREokp6/JYZ5uNMaT5UziyHdtCJENPAO3QA3YqD0wZZHYAixyvDH
w9fUuWB+WYoKvBA3qb7W4t1JeWO5NzIl4v7Wxr1+9A2iMe8TAgMBAAGjgZEwgY4w
CQYDVR0TBAIwADARBglghkgBhvhCAQEEBAMCBkAwCwYDVR0PBAQDAgWgMCoGA1Ud
JQQjMCEGCCsGAQUFBwMBBglghkgBhvhCBAEGCisGAQQBgjcKAwMwNQYJYIZIAYb4
QgENBCgWJk9wZW5TU0wgQ2VydGlmaWNhdGUgZm9yIFNTTCBXZWIgU2VydmVyMA0G
CSqGSIb3DQEBBQUAA4GBAB9I/uYrOTvw+ddITjPYjYkD6xRRkQSh1wITnCjjXjbn
1eVR2iTmY+vCXb9iKHk9WePu1PTnAFi7FFlTvfisSCsEFUU3j9i4JCwl4CpWBdG0
Quc98YM1MXwvZ+sN0vSbk2Vp9/hZGVNMd8gaMjoX6kG2BgoesfyA0xf+HGQUydza
-----END CERTIFICATE-----
