Certificate:
    Data:
        Version: 3 (0x2)
        Serial Number: 2 (0x2)
        Signature Algorithm: sha1WithRSAEncryption
        Issuer: O=SSLDemo, OU=my root ca
        Validity
            Not Before: Oct 28 03:11:21 2011 GMT
            Not After : Oct 27 03:11:21 2012 GMT
        Subject: O=client, OU=client, CN=yubo
        Subject Public Key Info:
            Public Key Algorithm: rsaEncryption
            RSA Public Key: (1024 bit)
                Modulus (1024 bit):
                    00:b8:9e:57:a8:d9:ad:ab:23:b5:c2:65:b6:ac:d1:
                    93:8e:72:4c:7c:5a:15:5e:8f:7f:6c:4d:a0:2e:94:
                    67:b6:29:21:99:1f:40:f3:a8:df:53:0d:eb:b5:74:
                    83:1b:c9:5a:8c:e7:9c:27:5b:f0:07:71:ab:4b:09:
                    29:e5:64:c0:0f:3e:28:15:71:a1:3d:41:08:d4:27:
                    e9:ab:03:3c:2a:85:8c:5d:68:06:d2:d0:62:43:35:
                    f6:2c:fa:55:9f:76:8d:6f:64:16:80:3d:a3:35:e1:
                    16:12:57:f8:22:d9:15:f0:43:1d:87:aa:85:74:63:
                    cf:78:76:fb:bd:c6:a6:40:ed
                Exponent: 65537 (0x10001)
        X509v3 extensions:
            X509v3 Basic Constraints: 
                CA:FALSE
            Netscape Cert Type: 
                SSL Client
            X509v3 Key Usage: 
                Digital Signature, Key Encipherment
            X509v3 Extended Key Usage: 
                TLS Web Client Authentication
            Netscape Comment: 
                OpenSSL Certificate for SSL Web Client
    Signature Algorithm: sha1WithRSAEncryption
        12:f0:c2:de:8e:a4:44:6b:4d:24:64:56:bd:bf:50:b5:e5:4a:
        cc:88:84:3c:f7:27:98:72:c4:2d:84:00:47:4e:91:df:e9:5f:
        84:94:5d:73:4c:90:0c:df:a8:52:f6:76:e7:f4:07:37:1a:53:
        28:bd:06:c3:e7:ee:5d:7e:4e:a9:71:34:c3:03:e0:44:d1:f5:
        d1:34:c0:64:08:57:d6:ee:62:9a:e9:77:82:34:82:c7:d0:5d:
        39:bb:13:da:2a:a1:5f:c2:68:5b:0a:6a:e1:74:7a:a7:c6:5e:
        43:3e:72:62:67:0a:fc:e2:3f:65:c2:63:47:d2:78:43:b6:3a:
        01:37
-----BEGIN CERTIFICATE-----
MIICRzCCAbCgAwIBAgIBAjANBgkqhkiG9w0BAQUFADAnMRAwDgYDVQQKEwdTU0xE
ZW1vMRMwEQYDVQQLEwpteSByb290IGNhMB4XDTExMTAyODAzMTEyMVoXDTEyMTAy
NzAzMTEyMVowMTEPMA0GA1UEChMGY2xpZW50MQ8wDQYDVQQLEwZjbGllbnQxDTAL
BgNVBAMTBHl1Ym8wgZ8wDQYJKoZIhvcNAQEBBQADgY0AMIGJAoGBALieV6jZrasj
tcJltqzRk45yTHxaFV6Pf2xNoC6UZ7YpIZkfQPOo31MN67V0gxvJWoznnCdb8Adx
q0sJKeVkwA8+KBVxoT1BCNQn6asDPCqFjF1oBtLQYkM19iz6VZ92jW9kFoA9ozXh
FhJX+CLZFfBDHYeqhXRjz3h2+73GpkDtAgMBAAGjeTB3MAkGA1UdEwQCMAAwEQYJ
YIZIAYb4QgEBBAQDAgeAMAsGA1UdDwQEAwIFoDATBgNVHSUEDDAKBggrBgEFBQcD
AjA1BglghkgBhvhCAQ0EKBYmT3BlblNTTCBDZXJ0aWZpY2F0ZSBmb3IgU1NMIFdl
YiBDbGllbnQwDQYJKoZIhvcNAQEFBQADgYEAEvDC3o6kRGtNJGRWvb9QteVKzIiE
PPcnmHLELYQAR06R3+lfhJRdc0yQDN+oUvZ25/QHNxpTKL0Gw+fuXX5OqXE0wwPg
RNH10TTAZAhX1u5imul3gjSCx9BdObsT2iqhX8JoWwpq4XR6p8ZeQz5yYmcK/OI/
ZcJjR9J4Q7Y6ATc=
-----END CERTIFICATE-----
