Certificate:
    Data:
        Version: 3 (0x2)
        Serial Number: 3 (0x3)
        Signature Algorithm: sha1WithRSAEncryption
        Issuer: O=SSLDemo, OU=my root ca
        Validity
            Not Before: Oct 28 02:45:41 2011 GMT
            Not After : Oct 27 02:45:41 2012 GMT
        Subject: O=My Web, OU=My Web, CN=mail.baofeng.com
        Subject Public Key Info:
            Public Key Algorithm: rsaEncryption
            RSA Public Key: (1024 bit)
                Modulus (1024 bit):
                    00:bd:74:84:84:cd:4e:1e:bb:63:72:f6:c8:a2:f3:
                    a7:69:1c:27:81:db:f5:52:ad:8a:c9:ae:fc:54:cd:
                    a3:d1:df:8e:82:aa:f1:e1:e0:77:85:c8:f7:ae:4e:
                    06:c9:0f:fe:6b:64:68:70:76:21:11:28:92:9e:bf:
                    25:86:79:b8:d3:1a:4f:95:33:8b:21:dd:b4:22:44:
                    34:f0:0e:dd:00:37:62:a0:f4:c1:96:47:60:08:b1:
                    ca:f0:c7:c3:d7:d4:b9:60:7e:59:8a:0a:bc:10:37:
                    a9:be:d6:e2:dd:49:79:63:b9:37:32:25:e2:fe:d6:
                    c6:bd:7e:f4:0d:a2:31:ef:13
                Exponent: 65537 (0x10001)
        X509v3 extensions:
            X509v3 Basic Constraints: 
                CA:FALSE
            Netscape Cert Type: 
                SSL Server
            X509v3 Key Usage: 
                Digital Signature, Key Encipherment
            X509v3 Extended Key Usage: 
                TLS Web Server Authentication, Netscape Server Gated Crypto, Microsoft Server Gated Crypto
            Netscape Comment: 
                OpenSSL Certificate for SSL Web Server
    Signature Algorithm: sha1WithRSAEncryption
        05:cf:f5:5f:c8:7d:a3:45:ea:7b:e8:b4:4b:02:75:81:18:8c:
        03:ac:fa:16:87:e7:4e:ae:ef:a7:28:9c:15:29:5c:b9:5f:83:
        5b:f5:b8:23:48:ba:da:d6:fa:4a:1e:ec:12:92:40:05:43:b0:
        13:d1:e7:56:fa:7c:50:a4:77:e5:75:5c:03:9a:ee:71:66:62:
        11:32:a5:40:a9:9b:0e:31:25:c6:da:b1:61:ce:4f:f9:7f:d2:
        0e:73:68:45:54:30:c9:8e:e6:59:00:59:42:79:9c:e8:86:92:
        ce:db:07:68:1b:22:77:98:35:85:a7:65:33:c3:17:c6:99:bc:
        5b:62
-----BEGIN CERTIFICATE-----
MIICbDCCAdWgAwIBAgIBAzANBgkqhkiG9w0BAQUFADAnMRAwDgYDVQQKEwdTU0xE
ZW1vMRMwEQYDVQQLEwpteSByb290IGNhMB4XDTExMTAyODAyNDU0MVoXDTEyMTAy
NzAyNDU0MVowPTEPMA0GA1UEChMGTXkgV2ViMQ8wDQYDVQQLEwZNeSBXZWIxGTAX
BgNVBAMTEG1haWwuYmFvZmVuZy5jb20wgZ8wDQYJKoZIhvcNAQEBBQADgY0AMIGJ
AoGBAL10hITNTh67Y3L2yKLzp2kcJ4Hb9VKtismu/FTNo9HfjoKq8eHgd4XI965O
BskP/mtkaHB2IREokp6/JYZ5uNMaT5UziyHdtCJENPAO3QA3YqD0wZZHYAixyvDH
w9fUuWB+WYoKvBA3qb7W4t1JeWO5NzIl4v7Wxr1+9A2iMe8TAgMBAAGjgZEwgY4w
CQYDVR0TBAIwADARBglghkgBhvhCAQEEBAMCBkAwCwYDVR0PBAQDAgWgMCoGA1Ud
JQQjMCEGCCsGAQUFBwMBBglghkgBhvhCBAEGCisGAQQBgjcKAwMwNQYJYIZIAYb4
QgENBCgWJk9wZW5TU0wgQ2VydGlmaWNhdGUgZm9yIFNTTCBXZWIgU2VydmVyMA0G
CSqGSIb3DQEBBQUAA4GBAAXP9V/IfaNF6nvotEsCdYEYjAOs+haH506u76conBUp
XLlfg1v1uCNIutrW+koe7BKSQAVDsBPR51b6fFCkd+V1XAOa7nFmYhEypUCpmw4x
JcbasWHOT/l/0g5zaEVUMMmO5lkAWUJ5nOiGks7bB2gbIneYNYWnZTPDF8aZvFti
-----END CERTIFICATE-----
